target datalayout = "e-m:e-p270:32:32-p271:32:32-p272:64:64-i64:64-i128:128-f80:128-n8:16:32:64-S128"
target triple = "x86_64-pc-linux-gnu"

%struct.IDAMemRec = type { ptr, double, ptr, ptr, i32, double, double, ptr, i32, i32, ptr, ptr, i32, i32, i32, ptr, ptr, i32, i32, double, double, ptr, i32, i32, i32, i32, ptr, ptr, i32, ptr, ptr, ptr, i32, double, i32, i32, double, ptr, ptr, ptr, i32, ptr, ptr, i32, i32, i32, double, ptr, ptr, ptr, [6 x ptr], [6 x double], [6 x double], [6 x double], [6 x double], [6 x double], ptr, ptr, ptr, ptr, ptr, ptr, ptr, ptr, ptr, ptr, ptr, ptr, ptr, ptr, ptr, ptr, ptr, [6 x ptr], ptr, ptr, ptr, ptr, [6 x ptr], ptr, ptr, ptr, ptr, ptr, ptr, ptr, ptr, ptr, ptr, ptr, ptr, ptr, ptr, ptr, ptr, [6 x ptr], ptr, ptr, ptr, ptr, ptr, double, ptr, ptr, i32, i32, i32, i32, i32, i32, i32, i32, double, double, double, i32, double, i32, i32, i32, i32, i32, double, double, double, double, double, double, double, double, double, double, double, double, double, double, double, double, double, i32, i32, i32, i32, i64, double, double, double, double, double, double, double, double, double, i64, i64, i64, i64, i64, i64, i64, i64, i64, i64, i64, i64, i64, i64, i64, i64, i64, i64, i64, i64, i64, i64, i64, i64, i64, i64, double, i32, i32, i32, i32, i32, i32, i32, i32, i32, i32, i32, i32, i32, ptr, i32, ptr, i32, ptr, i32, ptr, ptr, ptr, ptr, ptr, ptr, i32, i32, ptr, ptr, ptr, ptr, ptr, ptr, ptr, double, i32, i32, ptr, i32, ptr, ptr, double, double, double, ptr, ptr, ptr, double, double, i32, i32, i64, ptr, i32, ptr, [5 x double], ptr, ptr, i32, ptr, i32 }

@.str = private unnamed_addr constant [114 x i8] c"generated/home/dtcxzyw/WorkSpace/Projects/compilers/llvm-opt-benchmark/bench/sundials/sundials/src/idas/idas_io.c\00", align 1
@.str.1 = private unnamed_addr constant [24 x i8] c"ida_mem = NULL illegal.\00", align 1
@__func__.IDASetSensParams = private unnamed_addr constant [17 x i8] c"IDASetSensParams\00", align 1
@.str.21 = private unnamed_addr constant [52 x i8] c"Illegal attempt to call before calling IDASensInit.\00", align 1
@.str.22 = private unnamed_addr constant [38 x i8] c"pbar has zero component(s) (illegal).\00", align 1
@.str.23 = private unnamed_addr constant [43 x i8] c"plist has negative component(s) (illegal).\00", align 1

; Function Attrs: nounwind uwtable
define i32 @IDASetSensParams(ptr noundef %0, ptr noundef %1, ptr noundef %2, ptr noundef %3) #0 {
  %5 = alloca i32, align 4
  %6 = alloca ptr, align 8
  %7 = alloca ptr, align 8
  %8 = alloca ptr, align 8
  %9 = alloca ptr, align 8
  %10 = alloca ptr, align 8
  %11 = alloca i32, align 4
  %12 = alloca i32, align 4
  store ptr %0, ptr %6, align 8
  store ptr %1, ptr %7, align 8
  store ptr %2, ptr %8, align 8
  store ptr %3, ptr %9, align 8
  %13 = load ptr, ptr %6, align 8
  %14 = icmp eq ptr %13, null
  br i1 %14, label %15, label %16

15:                                               ; preds = %4
  call void (ptr, i32, i32, ptr, ptr, ptr, ...) @IDAProcessError(ptr noundef null, i32 noundef -20, i32 noundef 999, ptr noundef @__func__.IDASetSensParams, ptr noundef @.str, ptr noundef @.str.1)
  store i32 -20, ptr %5, align 4
  br label %131

16:                                               ; preds = %4
  %17 = load ptr, ptr %6, align 8
  store ptr %17, ptr %10, align 8
  %18 = load ptr, ptr %10, align 8
  %19 = getelementptr inbounds %struct.IDAMemRec, ptr %18, i32 0, i32 189
  %20 = load i32, ptr %19, align 4
  %21 = icmp eq i32 %20, 0
  br i1 %21, label %22, label %24

22:                                               ; preds = %16
  %23 = load ptr, ptr %10, align 8
  call void (ptr, i32, i32, ptr, ptr, ptr, ...) @IDAProcessError(ptr noundef %23, i32 noundef -40, i32 noundef 1009, ptr noundef @__func__.IDASetSensParams, ptr noundef @.str, ptr noundef @.str.21)
  store i32 -40, ptr %5, align 4
  br label %131

24:                                               ; preds = %16
  %25 = load ptr, ptr %10, align 8
  %26 = getelementptr inbounds %struct.IDAMemRec, ptr %25, i32 0, i32 24
  %27 = load i32, ptr %26, align 8
  store i32 %27, ptr %11, align 4
  %28 = load ptr, ptr %7, align 8
  %29 = load ptr, ptr %10, align 8
  %30 = getelementptr inbounds %struct.IDAMemRec, ptr %29, i32 0, i32 29
  store ptr %28, ptr %30, align 8
  %31 = load ptr, ptr %8, align 8
  %32 = icmp ne ptr %31, null
  br i1 %32, label %33, label %64

33:                                               ; preds = %24
  store i32 0, ptr %12, align 4
  br label %34

34:                                               ; preds = %60, %33
  %35 = load i32, ptr %12, align 4
  %36 = load i32, ptr %11, align 4
  %37 = icmp slt i32 %35, %36
  br i1 %37, label %38, label %63

38:                                               ; preds = %34
  %39 = load ptr, ptr %8, align 8
  %40 = load i32, ptr %12, align 4
  %41 = sext i32 %40 to i64
  %42 = getelementptr inbounds double, ptr %39, i64 %41
  %43 = load double, ptr %42, align 8
  %44 = fcmp oeq double %43, 0.000000e+00
  br i1 %44, label %45, label %47

45:                                               ; preds = %38
  %46 = load ptr, ptr %10, align 8
  call void (ptr, i32, i32, ptr, ptr, ptr, ...) @IDAProcessError(ptr noundef %46, i32 noundef -22, i32 noundef 1028, ptr noundef @__func__.IDASetSensParams, ptr noundef @.str, ptr noundef @.str.22)
  store i32 -22, ptr %5, align 4
  br label %131

47:                                               ; preds = %38
  %48 = load ptr, ptr %8, align 8
  %49 = load i32, ptr %12, align 4
  %50 = sext i32 %49 to i64
  %51 = getelementptr inbounds double, ptr %48, i64 %50
  %52 = load double, ptr %51, align 8
  %53 = call double @llvm.fabs.f64(double %52)
  %54 = load ptr, ptr %10, align 8
  %55 = getelementptr inbounds %struct.IDAMemRec, ptr %54, i32 0, i32 30
  %56 = load ptr, ptr %55, align 8
  %57 = load i32, ptr %12, align 4
  %58 = sext i32 %57 to i64
  %59 = getelementptr inbounds double, ptr %56, i64 %58
  store double %53, ptr %59, align 8
  br label %60

60:                                               ; preds = %47
  %61 = load i32, ptr %12, align 4
  %62 = add nsw i32 %61, 1
  store i32 %62, ptr %12, align 4
  br label %34

63:                                               ; preds = %34
  br label %80

64:                                               ; preds = %24
  store i32 0, ptr %12, align 4
  br label %65

65:                                               ; preds = %76, %64
  %66 = load i32, ptr %12, align 4
  %67 = load i32, ptr %11, align 4
  %68 = icmp slt i32 %66, %67
  br i1 %68, label %69, label %79

69:                                               ; preds = %65
  %70 = load ptr, ptr %10, align 8
  %71 = getelementptr inbounds %struct.IDAMemRec, ptr %70, i32 0, i32 30
  %72 = load ptr, ptr %71, align 8
  %73 = load i32, ptr %12, align 4
  %74 = sext i32 %73 to i64
  %75 = getelementptr inbounds double, ptr %72, i64 %74
  store double 1.000000e+00, ptr %75, align 8
  br label %76

76:                                               ; preds = %69
  %77 = load i32, ptr %12, align 4
  %78 = add nsw i32 %77, 1
  store i32 %78, ptr %12, align 4
  br label %65

79:                                               ; preds = %65
  br label %80

80:                                               ; preds = %79, %63
  %81 = load ptr, ptr %9, align 8
  %82 = icmp ne ptr %81, null
  br i1 %82, label %83, label %113

83:                                               ; preds = %80
  store i32 0, ptr %12, align 4
  br label %84

84:                                               ; preds = %109, %83
  %85 = load i32, ptr %12, align 4
  %86 = load i32, ptr %11, align 4
  %87 = icmp slt i32 %85, %86
  br i1 %87, label %88, label %112

88:                                               ; preds = %84
  %89 = load ptr, ptr %9, align 8
  %90 = load i32, ptr %12, align 4
  %91 = sext i32 %90 to i64
  %92 = getelementptr inbounds i32, ptr %89, i64 %91
  %93 = load i32, ptr %92, align 4
  %94 = icmp slt i32 %93, 0
  br i1 %94, label %95, label %97

95:                                               ; preds = %88
  %96 = load ptr, ptr %10, align 8
  call void (ptr, i32, i32, ptr, ptr, ptr, ...) @IDAProcessError(ptr noundef %96, i32 noundef -22, i32 noundef 1048, ptr noundef @__func__.IDASetSensParams, ptr noundef @.str, ptr noundef @.str.23)
  store i32 -22, ptr %5, align 4
  br label %131

97:                                               ; preds = %88
  %98 = load ptr, ptr %9, align 8
  %99 = load i32, ptr %12, align 4
  %100 = sext i32 %99 to i64
  %101 = getelementptr inbounds i32, ptr %98, i64 %100
  %102 = load i32, ptr %101, align 4
  %103 = load ptr, ptr %10, align 8
  %104 = getelementptr inbounds %struct.IDAMemRec, ptr %103, i32 0, i32 31
  %105 = load ptr, ptr %104, align 8
  %106 = load i32, ptr %12, align 4
  %107 = sext i32 %106 to i64
  %108 = getelementptr inbounds i32, ptr %105, i64 %107
  store i32 %102, ptr %108, align 4
  br label %109

109:                                              ; preds = %97
  %110 = load i32, ptr %12, align 4
  %111 = add nsw i32 %110, 1
  store i32 %111, ptr %12, align 4
  br label %84

112:                                              ; preds = %84
  br label %130

113:                                              ; preds = %80
  store i32 0, ptr %12, align 4
  br label %114

114:                                              ; preds = %126, %113
  %115 = load i32, ptr %12, align 4
  %116 = load i32, ptr %11, align 4
  %117 = icmp slt i32 %115, %116
  br i1 %117, label %118, label %129

118:                                              ; preds = %114
  %119 = load i32, ptr %12, align 4
  %120 = load ptr, ptr %10, align 8
  %121 = getelementptr inbounds %struct.IDAMemRec, ptr %120, i32 0, i32 31
  %122 = load ptr, ptr %121, align 8
  %123 = load i32, ptr %12, align 4
  %124 = sext i32 %123 to i64
  %125 = getelementptr inbounds i32, ptr %122, i64 %124
  store i32 %119, ptr %125, align 4
  br label %126

126:                                              ; preds = %118
  %127 = load i32, ptr %12, align 4
  %128 = add nsw i32 %127, 1
  store i32 %128, ptr %12, align 4
  br label %114

129:                                              ; preds = %114
  br label %130

130:                                              ; preds = %129, %112
  store i32 0, ptr %5, align 4
  br label %131

131:                                              ; preds = %130, %95, %45, %22, %15
  %132 = load i32, ptr %5, align 4
  ret i32 %132
}