; Function Attrs: nounwind uwtable
define range(i32 -40, 1) i32 @IDASetSensParams(ptr noundef %0, ptr noundef %1, ptr noundef readonly %2, ptr noundef readonly %3) local_unnamed_addr #0 {
  %5 = icmp eq ptr %0, null
  br i1 %5, label %6, label %7

6:                                                ; preds = %4
  tail call void (ptr, i32, i32, ptr, ptr, ptr, ...) @IDAProcessError(ptr noundef null, i32 noundef -20, i32 noundef 999, ptr noundef nonnull @__func__.IDASetSensParams, ptr noundef nonnull @.str, ptr noundef nonnull @.str.1) #9
  br label %.loopexit

7:                                                ; preds = %4
  %8 = getelementptr inbounds nuw i8, ptr %0, i64 1716
  %9 = load i32, ptr %8, align 4
  %10 = icmp eq i32 %9, 0
  br i1 %10, label %11, label %12

11:                                               ; preds = %7
  tail call void (ptr, i32, i32, ptr, ptr, ptr, ...) @IDAProcessError(ptr noundef nonnull %0, i32 noundef -40, i32 noundef 1009, ptr noundef nonnull @__func__.IDASetSensParams, ptr noundef nonnull @.str, ptr noundef nonnull @.str.21) #9
  br label %.loopexit

12:                                               ; preds = %7
  %13 = getelementptr inbounds nuw i8, ptr %0, i64 160
  %14 = load i32, ptr %13, align 8
  %15 = getelementptr inbounds nuw i8, ptr %0, i64 192
  store ptr %1, ptr %15, align 8
  %.not = icmp eq ptr %2, null
  %16 = icmp sgt i32 %14, 0
  br i1 %.not, label %.preheader49, label %.preheader51

.preheader51:                                     ; preds = %12
  br i1 %16, label %.lr.ph, label %.loopexit50

.lr.ph:                                           ; preds = %.preheader51
  %17 = getelementptr inbounds nuw i8, ptr %0, i64 200
  %wide.trip.count = zext nneg i32 %14 to i64
  br label %19

.preheader49:                                     ; preds = %12
  br i1 %16, label %.lr.ph55, label %.loopexit50

.lr.ph55:                                         ; preds = %.preheader49
  %18 = getelementptr inbounds nuw i8, ptr %0, i64 200
  %wide.trip.count66 = zext nneg i32 %14 to i64
  br label %28

19:                                               ; preds = %.lr.ph, %24
  %indvars.iv = phi i64 [ 0, %.lr.ph ], [ %indvars.iv.next, %24 ]
  %20 = getelementptr inbounds nuw double, ptr %2, i64 %indvars.iv
  %21 = load double, ptr %20, align 8
  %22 = fcmp oeq double %21, 0.000000e+00
  br i1 %22, label %23, label %24

23:                                               ; preds = %19
  tail call void (ptr, i32, i32, ptr, ptr, ptr, ...) @IDAProcessError(ptr noundef nonnull %0, i32 noundef -22, i32 noundef 1028, ptr noundef nonnull @__func__.IDASetSensParams, ptr noundef nonnull @.str, ptr noundef nonnull @.str.22) #9
  br label %.loopexit

24:                                               ; preds = %19
  %25 = tail call double @llvm.fabs.f64(double %21)
  %26 = load ptr, ptr %17, align 8
  %27 = getelementptr inbounds nuw double, ptr %26, i64 %indvars.iv
  store double %25, ptr %27, align 8
  %indvars.iv.next = add nuw nsw i64 %indvars.iv, 1
  %exitcond.not = icmp eq i64 %indvars.iv.next, %wide.trip.count
  br i1 %exitcond.not, label %.loopexit50, label %19

28:                                               ; preds = %.lr.ph55, %28
  %indvars.iv63 = phi i64 [ 0, %.lr.ph55 ], [ %indvars.iv.next64, %28 ]
  %29 = load ptr, ptr %18, align 8
  %30 = getelementptr inbounds nuw double, ptr %29, i64 %indvars.iv63
  store double 1.000000e+00, ptr %30, align 8
  %indvars.iv.next64 = add nuw nsw i64 %indvars.iv63, 1
  %exitcond67.not = icmp eq i64 %indvars.iv.next64, %wide.trip.count66
  br i1 %exitcond67.not, label %.loopexit50, label %28

.loopexit50:                                      ; preds = %24, %28, %.preheader51, %.preheader49
  %.not46 = icmp eq ptr %3, null
  %31 = icmp sgt i32 %14, 0
  br i1 %.not46, label %.preheader, label %.preheader47

.preheader47:                                     ; preds = %.loopexit50
  br i1 %31, label %.lr.ph57, label %.loopexit

.lr.ph57:                                         ; preds = %.preheader47
  %32 = getelementptr inbounds nuw i8, ptr %0, i64 208
  %wide.trip.count71 = zext nneg i32 %14 to i64
  br label %34

.preheader:                                       ; preds = %.loopexit50
  br i1 %31, label %.lr.ph59, label %.loopexit

.lr.ph59:                                         ; preds = %.preheader
  %33 = getelementptr inbounds nuw i8, ptr %0, i64 208
  %wide.trip.count76 = zext nneg i32 %14 to i64
  br label %42

34:                                               ; preds = %.lr.ph57, %39
  %indvars.iv68 = phi i64 [ 0, %.lr.ph57 ], [ %indvars.iv.next69, %39 ]
  %35 = getelementptr inbounds nuw i32, ptr %3, i64 %indvars.iv68
  %36 = load i32, ptr %35, align 4
  %37 = icmp slt i32 %36, 0
  br i1 %37, label %38, label %39

38:                                               ; preds = %34
  tail call void (ptr, i32, i32, ptr, ptr, ptr, ...) @IDAProcessError(ptr noundef nonnull %0, i32 noundef -22, i32 noundef 1048, ptr noundef nonnull @__func__.IDASetSensParams, ptr noundef nonnull @.str, ptr noundef nonnull @.str.23) #9
  br label %.loopexit

39:                                               ; preds = %34
  %40 = load ptr, ptr %32, align 8
  %41 = getelementptr inbounds nuw i32, ptr %40, i64 %indvars.iv68
  store i32 %36, ptr %41, align 4
  %indvars.iv.next69 = add nuw nsw i64 %indvars.iv68, 1
  %exitcond72.not = icmp eq i64 %indvars.iv.next69, %wide.trip.count71
  br i1 %exitcond72.not, label %.loopexit, label %34

42:                                               ; preds = %.lr.ph59, %42
  %indvars.iv73 = phi i64 [ 0, %.lr.ph59 ], [ %indvars.iv.next74, %42 ]
  %43 = load ptr, ptr %33, align 8
  %44 = getelementptr inbounds nuw i32, ptr %43, i64 %indvars.iv73
  %45 = trunc nuw nsw i64 %indvars.iv73 to i32
  store i32 %45, ptr %44, align 4
  %indvars.iv.next74 = add nuw nsw i64 %indvars.iv73, 1
  %exitcond77.not = icmp eq i64 %indvars.iv.next74, %wide.trip.count76
  br i1 %exitcond77.not, label %.loopexit, label %42

.loopexit:                                        ; preds = %39, %42, %.preheader47, %.preheader, %38, %23, %11, %6
  %.040 = phi i32 [ -20, %6 ], [ -40, %11 ], [ -22, %23 ], [ -22, %38 ], [ 0, %.preheader ], [ 0, %.preheader47 ], [ 0, %42 ], [ 0, %39 ]
  ret i32 %.040
}